Execution started at  00
00: 60 00 PUSH BYTE =00 p z n
Value stack: 00
02: 13 FLAGS BYTE p z n
Value stack: 00
03: 83 POP BYTE p Z n
Value stack:
04: E0E8 D0 10 ZERO NOT JUMP >10 p Z n
Value stack:
08: 60 00 PUSH BYTE =00 p Z n
Value stack: 00
0A: D1 17 CALL >17 p Z n
Value stack: 00
17: 81 20 POP BYTE @20 =00 p Z n
Value stack:
19: 62 20 PUSH BYTE @@20 @00 =56 p Z n
Value stack: 56
1B: 13 FLAGS BYTE p Z n
Value stack: 56
1C: E0 D2 ZERO RET p z n
Value stack: 56
1E: 08 OUT p z n
V
Value stack:
1F: 21 20 INC BYTE @20 =00 p z n
Value stack:
21: D0 19 JUMP >19 p z n
Value stack:
19: 62 20 PUSH BYTE @@20 @01 =61 p z n
Value stack: 61
1B: 13 FLAGS BYTE p z n
Value stack: 61
1C: E0 D2 ZERO RET p z n
Value stack: 61
1E: 08 OUT p z n
a
Value stack:
1F: 21 20 INC BYTE @20 =01 p z n
Value stack:
21: D0 19 JUMP >19 p z n
Value stack:
19: 62 20 PUSH BYTE @@20 @02 =6C p z n
Value stack: 6C
1B: 13 FLAGS BYTE p z n
Value stack: 6C
1C: E0 D2 ZERO RET p z n
Value stack: 6C
1E: 08 OUT p z n
l
Value stack:
1F: 21 20 INC BYTE @20 =02 p z n
Value stack:
21: D0 19 JUMP >19 p z n
Value stack:
19: 62 20 PUSH BYTE @@20 @03 =75 p z n
Value stack: 75
1B: 13 FLAGS BYTE p z n
Value stack: 75
1C: E0 D2 ZERO RET p z n
Value stack: 75
1E: 08 OUT p z n
u
Value stack:
1F: 21 20 INC BYTE @20 =03 p z n
Value stack:
21: D0 19 JUMP >19 p z n
Value stack:
19: 62 20 PUSH BYTE @@20 @04 =65 p z n
Value stack: 65
1B: 13 FLAGS BYTE p z n
Value stack: 65
1C: E0 D2 ZERO RET p z n
Value stack: 65
1E: 08 OUT p z n
e
Value stack:
1F: 21 20 INC BYTE @20 =04 p z n
Value stack:
21: D0 19 JUMP >19 p z n
Value stack:
19: 62 20 PUSH BYTE @@20 @05 =20 p z n
Value stack: 20
1B: 13 FLAGS BYTE p z n
Value stack: 20
1C: E0 D2 ZERO RET p z n
Value stack: 20
1E: 08 OUT p z n
 
Value stack:
1F: 21 20 INC BYTE @20 =05 p z n
Value stack:
21: D0 19 JUMP >19 p z n
Value stack:
19: 62 20 PUSH BYTE @@20 @06 =69 p z n
Value stack: 69
1B: 13 FLAGS BYTE p z n
Value stack: 69
1C: E0 D2 ZERO RET p z n
Value stack: 69
1E: 08 OUT p z n
i
Value stack:
1F: 21 20 INC BYTE @20 =06 p z n
Value stack:
21: D0 19 JUMP >19 p z n
Value stack:
19: 62 20 PUSH BYTE @@20 @07 =73 p z n
Value stack: 73
1B: 13 FLAGS BYTE p z n
Value stack: 73
1C: E0 D2 ZERO RET p z n
Value stack: 73
1E: 08 OUT p z n
s
Value stack:
1F: 21 20 INC BYTE @20 =07 p z n
Value stack:
21: D0 19 JUMP >19 p z n
Value stack:
19: 62 20 PUSH BYTE @@20 @08 =20 p z n
Value stack: 20
1B: 13 FLAGS BYTE p z n
Value stack: 20
1C: E0 D2 ZERO RET p z n
Value stack: 20
1E: 08 OUT p z n
 
Value stack:
1F: 21 20 INC BYTE @20 =08 p z n
Value stack:
21: D0 19 JUMP >19 p z n
Value stack:
19: 62 20 PUSH BYTE @@20 @09 =7A p z n
Value stack: 7A
1B: 13 FLAGS BYTE p z n
Value stack: 7A
1C: E0 D2 ZERO RET p z n
Value stack: 7A
1E: 08 OUT p z n
z
Value stack:
1F: 21 20 INC BYTE @20 =09 p z n
Value stack:
21: D0 19 JUMP >19 p z n
Value stack:
19: 62 20 PUSH BYTE @@20 @0A =65 p z n
Value stack: 65
1B: 13 FLAGS BYTE p z n
Value stack: 65
1C: E0 D2 ZERO RET p z n
Value stack: 65
1E: 08 OUT p z n
e
Value stack:
1F: 21 20 INC BYTE @20 =0A p z n
Value stack:
21: D0 19 JUMP >19 p z n
Value stack:
19: 62 20 PUSH BYTE @@20 @0B =72 p z n
Value stack: 72
1B: 13 FLAGS BYTE p z n
Value stack: 72
1C: E0 D2 ZERO RET p z n
Value stack: 72
1E: 08 OUT p z n
r
Value stack:
1F: 21 20 INC BYTE @20 =0B p z n
Value stack:
21: D0 19 JUMP >19 p z n
Value stack:
19: 62 20 PUSH BYTE @@20 @0C =6F p z n
Value stack: 6F
1B: 13 FLAGS BYTE p z n
Value stack: 6F
1C: E0 D2 ZERO RET p z n
Value stack: 6F
1E: 08 OUT p z n
o
Value stack:
1F: 21 20 INC BYTE @20 =0C p z n
Value stack:
21: D0 19 JUMP >19 p z n
Value stack:
19: 62 20 PUSH BYTE @@20 @0D =00 p z n
Value stack: 00
1B: 13 FLAGS BYTE p z n
Value stack: 00
1C: E0 D2 ZERO RET p Z n
Value stack: 00
0C: D1 23 CALL >23 p Z n
Value stack: 00
23: 61 21 PUSH BYTE @21 =0A p Z n
Value stack: 00 0A
25: 08 OUT p Z n


Value stack: 00
26: D2 RET p Z n
Value stack: 00
0E: D0 16 JUMP >16 p Z n
Value stack: 00
16: 04 EXIT p Z n
Value stack: 00
Execution halted at 16
